; Function Attrs: cold nounwind optsize uwtable
define internal i32 @vvc_parser_init(ptr noundef readonly captures(none) %0) #0 {
  %2 = load ptr, ptr %0, align 8, !tbaa !4
  %3 = getelementptr inbounds nuw i8, ptr %2, i64 48
  %4 = tail call i32 @ff_cbs_init(ptr noundef nonnull %3, i32 noundef 196, ptr noundef null) #4
  %5 = icmp slt i32 %4, 0
  br i1 %5, label %13, label %6

6:                                                ; preds = %1
  %7 = getelementptr inbounds nuw i8, ptr %2, i64 312
  store i8 -1, ptr %7, align 4, !tbaa !12
  %8 = getelementptr inbounds nuw i8, ptr %2, i64 320
  store i32 2147483647, ptr %8, align 4, !tbaa !14
  %9 = getelementptr inbounds nuw i8, ptr %2, i64 316
  store i32 2147483647, ptr %9, align 4, !tbaa !15
  %10 = load ptr, ptr %3, align 8, !tbaa !16
  %11 = getelementptr inbounds nuw i8, ptr %10, i64 24
  store ptr @decompose_unit_types, ptr %11, align 8, !tbaa !27
  %12 = getelementptr inbounds nuw i8, ptr %10, i64 32
  store i32 13, ptr %12, align 8, !tbaa !31
  br label %13

13:                                               ; preds = %1, %6
  ret i32 %4
}